; Function Attrs: mustprogress uwtable
define internal noundef zeroext i1 @"_ZNSt17_Function_handlerIFSt6vectorISt4pairIidESaIS2_EEiEZ30RowPairFunctionFromDenseMatricPKviiiiE3$_0E10_M_managerERSt9_Any_dataRKSA_St18_Manager_operation"(ptr noundef nonnull align 8 captures(none) dereferenceable(16) %0, ptr noundef nonnull readonly align 8 captures(none) dereferenceable(16) %1, i32 noundef %2) #5 align 2 personality ptr @__gxx_personality_v0 {
  switch i32 %2, label %6 [
    i32 0, label %4
    i32 1, label %5
  ]

4:                                                ; preds = %3
  store ptr @"_ZTIZ30RowPairFunctionFromDenseMatricPKviiiiE3$_0", ptr %0, align 8, !tbaa !403
  br label %"_ZNSt14_Function_base13_Base_managerIZ30RowPairFunctionFromDenseMatricPKviiiiE3$_0E10_M_managerERSt9_Any_dataRKS5_St18_Manager_operation.exit"

5:                                                ; preds = %3
  %.val = load ptr, ptr %1, align 8, !tbaa !16
  store ptr %.val, ptr %0, align 8, !tbaa !16
  br label %"_ZNSt14_Function_base13_Base_managerIZ30RowPairFunctionFromDenseMatricPKviiiiE3$_0E10_M_managerERSt9_Any_dataRKS5_St18_Manager_operation.exit"

6:                                                ; preds = %3
  %.val6 = load ptr, ptr %1, align 8
  switch i32 %2, label %"_ZNSt14_Function_base13_Base_managerIZ30RowPairFunctionFromDenseMatricPKviiiiE3$_0E10_M_managerERSt9_Any_dataRKS5_St18_Manager_operation.exit" [
    i32 3, label %27
    i32 2, label %7
  ]

7:                                                ; preds = %6
  %8 = tail call noalias noundef nonnull dereferenceable(32) ptr @_Znwm(i64 noundef 32) #43
  %9 = getelementptr inbounds nuw i8, ptr %8, i64 16
  %10 = getelementptr inbounds nuw i8, ptr %8, i64 24
  %11 = getelementptr inbounds nuw i8, ptr %.val6, i64 16
  tail call void @llvm.memset.p0.i64(ptr noundef nonnull align 8 dereferenceable(32) %8, i8 0, i64 32, i1 false)
  %12 = load ptr, ptr %11, align 8, !tbaa !200
  %.not.i.i.not.i.i.i.i.i = icmp eq ptr %12, null
  br i1 %.not.i.i.not.i.i.i.i.i, label %"_ZNSt14_Function_base13_Base_managerIZ30RowPairFunctionFromDenseMatricPKviiiiE3$_0E15_M_init_functorIRKS3_EEvRSt9_Any_dataOT_.exit.i", label %13

13:                                               ; preds = %7
  %14 = invoke noundef zeroext i1 %12(ptr noundef nonnull align 8 dereferenceable(32) %8, ptr noundef nonnull align 8 dereferenceable(32) %.val6, i32 noundef 2)
          to label %15 unwind label %19

15:                                               ; preds = %13
  %16 = getelementptr inbounds nuw i8, ptr %.val6, i64 24
  %17 = load ptr, ptr %16, align 8, !tbaa !273
  store ptr %17, ptr %10, align 8, !tbaa !273
  %18 = load ptr, ptr %11, align 8, !tbaa !200
  store ptr %18, ptr %9, align 8, !tbaa !200
  br label %"_ZNSt14_Function_base13_Base_managerIZ30RowPairFunctionFromDenseMatricPKviiiiE3$_0E15_M_init_functorIRKS3_EEvRSt9_Any_dataOT_.exit.i"

19:                                               ; preds = %13
  %20 = landingpad { ptr, i32 }
          cleanup
  %21 = load ptr, ptr %9, align 8, !tbaa !200
  %.not.i.i.i.i.i.i = icmp eq ptr %21, null
  br i1 %.not.i.i.i.i.i.i, label %.body.i.i.i, label %22

22:                                               ; preds = %19
  %23 = invoke noundef zeroext i1 %21(ptr noundef nonnull align 8 dereferenceable(32) %8, ptr noundef nonnull align 8 dereferenceable(32) %8, i32 noundef 3)
          to label %.body.i.i.i unwind label %24

24:                                               ; preds = %22
  %25 = landingpad { ptr, i32 }
          catch ptr null
  %26 = extractvalue { ptr, i32 } %25, 0
  tail call void @__clang_call_terminate(ptr %26) #40
  unreachable

.body.i.i.i:                                      ; preds = %22, %19
  tail call void @_ZdlPv(ptr noundef nonnull %8) #39
  resume { ptr, i32 } %20

"_ZNSt14_Function_base13_Base_managerIZ30RowPairFunctionFromDenseMatricPKviiiiE3$_0E15_M_init_functorIRKS3_EEvRSt9_Any_dataOT_.exit.i": ; preds = %15, %7
  store ptr %8, ptr %0, align 8, !tbaa !16
  br label %"_ZNSt14_Function_base13_Base_managerIZ30RowPairFunctionFromDenseMatricPKviiiiE3$_0E10_M_managerERSt9_Any_dataRKS5_St18_Manager_operation.exit"

27:                                               ; preds = %6
  %.val7.i = load ptr, ptr %0, align 8, !tbaa !16
  %28 = icmp eq ptr %.val7.i, null
  br i1 %28, label %"_ZNSt14_Function_base13_Base_managerIZ30RowPairFunctionFromDenseMatricPKviiiiE3$_0E10_M_managerERSt9_Any_dataRKS5_St18_Manager_operation.exit", label %29

29:                                               ; preds = %27
  %30 = getelementptr inbounds nuw i8, ptr %.val7.i, i64 16
  %31 = load ptr, ptr %30, align 8, !tbaa !200
  %.not.i.i.i.i = icmp eq ptr %31, null
  br i1 %.not.i.i.i.i, label %"_ZZ30RowPairFunctionFromDenseMatricPKviiiiEN3$_0D2Ev.exit.i.i", label %32

32:                                               ; preds = %29
  %33 = invoke noundef zeroext i1 %31(ptr noundef nonnull align 8 dereferenceable(32) %.val7.i, ptr noundef nonnull align 8 dereferenceable(32) %.val7.i, i32 noundef 3)
          to label %"_ZZ30RowPairFunctionFromDenseMatricPKviiiiEN3$_0D2Ev.exit.i.i" unwind label %34

34:                                               ; preds = %32
  %35 = landingpad { ptr, i32 }
          catch ptr null
  %36 = extractvalue { ptr, i32 } %35, 0
  tail call void @__clang_call_terminate(ptr %36) #40
  unreachable

"_ZZ30RowPairFunctionFromDenseMatricPKviiiiEN3$_0D2Ev.exit.i.i": ; preds = %32, %29
  tail call void @_ZdlPv(ptr noundef nonnull %.val7.i) #39
  br label %"_ZNSt14_Function_base13_Base_managerIZ30RowPairFunctionFromDenseMatricPKviiiiE3$_0E10_M_managerERSt9_Any_dataRKS5_St18_Manager_operation.exit"

"_ZNSt14_Function_base13_Base_managerIZ30RowPairFunctionFromDenseMatricPKviiiiE3$_0E10_M_managerERSt9_Any_dataRKS5_St18_Manager_operation.exit": ; preds = %"_ZZ30RowPairFunctionFromDenseMatricPKviiiiEN3$_0D2Ev.exit.i.i", %27, %"_ZNSt14_Function_base13_Base_managerIZ30RowPairFunctionFromDenseMatricPKviiiiE3$_0E15_M_init_functorIRKS3_EEvRSt9_Any_dataOT_.exit.i", %6, %5, %4
  ret i1 false
}